cnumpy.core.multiarray
_reconstruct
p0
(cnumpy
ndarray
p1
(I0
tp2
S'b'
p3
tp4
Rp5
(I1
(I24
tp6
cnumpy
dtype
p7
(S'O8'
p8
I0
I1
tp9
Rp10
(I3
S'|'
p11
NNNI-1
I-1
I63
tp12
bI00
(lp13
S'fraud'
p14
aVbody_length
p15
aVuser_age
p16
aS'has_venue'
p17
aVau
p18
aVbiz
p19
aVca
p20
aVco
p21
aVcom
p22
aVcoop
p23
aVde
p24
aVedu
p25
aVfr
p26
aVgov
p27
aVie
p28
aVinfo
p29
aVly
p30
aVnet
p31
aVnl
p32
aVnz
p33
aVorg
p34
aS'other'
p35
aVuk
p36
aVus
p37
atp38
b.
